target datalayout = "e-m:e-p270:32:32-p271:32:32-p272:64:64-i64:64-i128:128-f80:128-n8:16:32:64-S128"
target triple = "x86_64-pc-linux-gnu"

%struct.XML_Memory_Handling_Suite = type { ptr, ptr, ptr }
%struct.XML_ParserStruct = type { ptr, ptr, ptr, %struct.XML_Memory_Handling_Suite, ptr, ptr, ptr, i64, ptr, i64, i8, i32, ptr, ptr, ptr, ptr, ptr, ptr, ptr, ptr, ptr, ptr, ptr, ptr, ptr, ptr, ptr, ptr, ptr, ptr, ptr, ptr, ptr, ptr, ptr, ptr, ptr, ptr, %struct.INIT_ENCODING, ptr, ptr, i8, i8, ptr, ptr, ptr, ptr, %struct.prolog_state, ptr, i32, ptr, ptr, ptr, ptr, ptr, i8, i32, ptr, ptr, ptr, ptr, ptr, ptr, ptr, ptr, ptr, i8, i8, ptr, ptr, ptr, ptr, ptr, ptr, i32, i32, i32, ptr, ptr, i64, i8, %struct.position, %struct.STRING_POOL, %struct.STRING_POOL, ptr, i32, i8, ptr, %struct.XML_ParsingStatus, i64 }
%struct.INIT_ENCODING = type { %struct.encoding, ptr }
%struct.encoding = type { [3 x ptr], [2 x ptr], ptr, ptr, ptr, ptr, ptr, ptr, ptr, ptr, ptr, ptr, i32, i8, i8 }
%struct.prolog_state = type { ptr, i32, i32 }
%struct.position = type { i64, i64 }
%struct.STRING_POOL = type { ptr, ptr, ptr, ptr, ptr, ptr }
%struct.XML_ParsingStatus = type { i32, i8 }

; Function Attrs: nounwind uwtable
define dso_local void @XML_SetReturnNSTriplet(ptr noundef %0, i32 noundef %1) #0 {
  %3 = alloca ptr, align 8
  %4 = alloca i32, align 4
  store ptr %0, ptr %3, align 8, !tbaa !13
  store i32 %1, ptr %4, align 4, !tbaa !177
  %5 = load ptr, ptr %3, align 8, !tbaa !13
  %6 = icmp eq ptr %5, null
  br i1 %6, label %7, label %8

7:                                                ; preds = %2
  br label %28

8:                                                ; preds = %2
  %9 = load ptr, ptr %3, align 8, !tbaa !13
  %10 = getelementptr inbounds nuw %struct.XML_ParserStruct, ptr %9, i32 0, i32 88
  %11 = getelementptr inbounds nuw %struct.XML_ParsingStatus, ptr %10, i32 0, i32 0
  %12 = load i32, ptr %11, align 8, !tbaa !140
  %13 = icmp eq i32 %12, 1
  br i1 %13, label %20, label %14

14:                                               ; preds = %8
  %15 = load ptr, ptr %3, align 8, !tbaa !13
  %16 = getelementptr inbounds nuw %struct.XML_ParserStruct, ptr %15, i32 0, i32 88
  %17 = getelementptr inbounds nuw %struct.XML_ParsingStatus, ptr %16, i32 0, i32 0
  %18 = load i32, ptr %17, align 8, !tbaa !140
  %19 = icmp eq i32 %18, 3
  br i1 %19, label %20, label %21

20:                                               ; preds = %14, %8
  br label %28

21:                                               ; preds = %14
  %22 = load i32, ptr %4, align 4, !tbaa !177
  %23 = icmp ne i32 %22, 0
  %24 = select i1 %23, i32 1, i32 0
  %25 = trunc i32 %24 to i8
  %26 = load ptr, ptr %3, align 8, !tbaa !13
  %27 = getelementptr inbounds nuw %struct.XML_ParserStruct, ptr %26, i32 0, i32 42
  store i8 %25, ptr %27, align 1, !tbaa !51
  br label %28

28:                                               ; preds = %21, %20, %7
  ret void
}