; Function Attrs: mustprogress nofree norecurse nosync nounwind willreturn memory(argmem: readwrite) uwtable
define dso_local void @XML_SetReturnNSTriplet(ptr noundef %0, i32 noundef %1) local_unnamed_addr #4 {
  %3 = icmp eq ptr %0, null
  br i1 %3, label %10, label %4

4:                                                ; preds = %2
  %5 = getelementptr inbounds nuw i8, ptr %0, i64 896
  %6 = load i32, ptr %5, align 8, !tbaa !79
  switch i32 %6, label %7 [
    i32 1, label %10
    i32 3, label %10
  ]

7:                                                ; preds = %4
  %.not = icmp ne i32 %1, 0
  %8 = zext i1 %.not to i8
  %9 = getelementptr inbounds nuw i8, ptr %0, i64 465
  store i8 %8, ptr %9, align 1, !tbaa !59
  br label %10

10:                                               ; preds = %4, %4, %2, %7
  ret void
}